; Function Attrs: mustprogress uwtable
define dso_local noundef i64 @_ZNK6cmList12ComputeIndexElb(ptr nocapture noundef nonnull readonly align 8 dereferenceable(24) %0, i64 noundef %1, i1 noundef zeroext %2) local_unnamed_addr #3 align 2 personality ptr @__gxx_personality_v0 {
  %4 = alloca i64, align 8
  %5 = alloca %"class.std::__cxx11::basic_string", align 8
  %6 = alloca %"class.std::__cxx11::basic_string", align 8
  %7 = alloca i64, align 8
  %8 = alloca i64, align 8
  store i64 %1, ptr %4, align 8
  br i1 %2, label %9, label %47

9:                                                ; preds = %3
  %10 = load ptr, ptr %0, align 8
  %11 = getelementptr inbounds i8, ptr %0, i64 8
  %12 = load ptr, ptr %11, align 8
  %13 = icmp eq ptr %10, %12
  br i1 %13, label %14, label %23

14:                                               ; preds = %9
  %15 = tail call ptr @__cxa_allocate_exception(i64 16) #27
  invoke void @_Z8cmStrCatIRA8_KcRlJRA21_S0_EENSt7__cxx1112basic_stringIcSt11char_traitsIcESaIcEEEOT_OT0_DpOT1_(ptr dead_on_unwind nonnull writable sret(%"class.std::__cxx11::basic_string") align 8 %5, ptr noundef nonnull align 1 dereferenceable(8) @.str.9, ptr noundef nonnull align 8 dereferenceable(8) %4, ptr noundef nonnull align 1 dereferenceable(21) @.str.10)
          to label %16 unwind label %.thread

16:                                               ; preds = %14
  invoke void @_ZNSt12out_of_rangeC1ERKNSt7__cxx1112basic_stringIcSt11char_traitsIcESaIcEEE(ptr noundef nonnull align 8 dereferenceable(16) %15, ptr noundef nonnull align 8 dereferenceable(32) %5)
          to label %18 unwind label %.thread33

.thread33:                                        ; preds = %16
  %17 = landingpad { ptr, i32 }
          cleanup
  call void @_ZNSt7__cxx1112basic_stringIcSt11char_traitsIcESaIcEED1Ev(ptr noundef nonnull align 8 dereferenceable(32) %5) #27
  br label %22

18:                                               ; preds = %16
  invoke void @__cxa_throw(ptr nonnull %15, ptr nonnull @_ZTISt12out_of_range, ptr nonnull @_ZNSt12out_of_rangeD1Ev) #28
          to label %60 unwind label %20

.thread:                                          ; preds = %14
  %19 = landingpad { ptr, i32 }
          cleanup
  br label %22

20:                                               ; preds = %18
  %21 = landingpad { ptr, i32 }
          cleanup
  call void @_ZNSt7__cxx1112basic_stringIcSt11char_traitsIcESaIcEED1Ev(ptr noundef nonnull align 8 dereferenceable(32) %5) #27
  br label %59

22:                                               ; preds = %.thread33, %.thread
  %.pn2732 = phi { ptr, i32 } [ %19, %.thread ], [ %17, %.thread33 ]
  call void @__cxa_free_exception(ptr %15) #27
  br label %59

23:                                               ; preds = %9
  %24 = ptrtoint ptr %12 to i64
  %25 = ptrtoint ptr %10 to i64
  %26 = sub i64 %24, %25
  %27 = ashr exact i64 %26, 5
  %28 = icmp slt i64 %1, 0
  %29 = select i1 %28, i64 %27, i64 0
  %spec.select = add nsw i64 %29, %1
  %30 = icmp sgt i64 %spec.select, -1
  %.not = icmp ugt i64 %27, %spec.select
  %or.cond = and i1 %30, %.not
  br i1 %or.cond, label %58, label %31

31:                                               ; preds = %23
  %32 = tail call ptr @__cxa_allocate_exception(i64 16) #27
  %33 = load ptr, ptr %11, align 8
  %34 = load ptr, ptr %0, align 8
  %35 = ptrtoint ptr %33 to i64
  %36 = ptrtoint ptr %34 to i64
  %37 = sub i64 %35, %36
  %38 = ashr exact i64 %37, 5
  store i64 %38, ptr %7, align 8
  %39 = add nsw i64 %38, -1
  store i64 %39, ptr %8, align 8
  invoke void @_Z8cmStrCatIRA8_KcRlJRA17_S0_mRA3_S0_mRA2_S0_EENSt7__cxx1112basic_stringIcSt11char_traitsIcESaIcEEEOT_OT0_DpOT1_(ptr dead_on_unwind nonnull writable sret(%"class.std::__cxx11::basic_string") align 8 %6, ptr noundef nonnull align 1 dereferenceable(8) @.str.9, ptr noundef nonnull align 8 dereferenceable(8) %4, ptr noundef nonnull align 1 dereferenceable(17) @.str.11, ptr noundef nonnull align 8 dereferenceable(8) %7, ptr noundef nonnull align 1 dereferenceable(3) @.str.12, ptr noundef nonnull align 8 dereferenceable(8) %8, ptr noundef nonnull align 1 dereferenceable(2) @.str.13)
          to label %40 unwind label %.thread35

40:                                               ; preds = %31
  invoke void @_ZNSt12out_of_rangeC1ERKNSt7__cxx1112basic_stringIcSt11char_traitsIcESaIcEEE(ptr noundef nonnull align 8 dereferenceable(16) %32, ptr noundef nonnull align 8 dereferenceable(32) %6)
          to label %42 unwind label %.thread39

.thread39:                                        ; preds = %40
  %41 = landingpad { ptr, i32 }
          cleanup
  call void @_ZNSt7__cxx1112basic_stringIcSt11char_traitsIcESaIcEED1Ev(ptr noundef nonnull align 8 dereferenceable(32) %6) #27
  br label %46

42:                                               ; preds = %40
  invoke void @__cxa_throw(ptr nonnull %32, ptr nonnull @_ZTISt12out_of_range, ptr nonnull @_ZNSt12out_of_rangeD1Ev) #28
          to label %60 unwind label %44

.thread35:                                        ; preds = %31
  %43 = landingpad { ptr, i32 }
          cleanup
  br label %46

44:                                               ; preds = %42
  %45 = landingpad { ptr, i32 }
          cleanup
  call void @_ZNSt7__cxx1112basic_stringIcSt11char_traitsIcESaIcEED1Ev(ptr noundef nonnull align 8 dereferenceable(32) %6) #27
  br label %59

46:                                               ; preds = %.thread39, %.thread35
  %.pn38 = phi { ptr, i32 } [ %43, %.thread35 ], [ %41, %.thread39 ]
  call void @__cxa_free_exception(ptr %32) #27
  br label %59

47:                                               ; preds = %3
  %48 = icmp slt i64 %1, 0
  br i1 %48, label %49, label %58

49:                                               ; preds = %47
  %50 = getelementptr inbounds i8, ptr %0, i64 8
  %51 = load ptr, ptr %50, align 8
  %52 = load ptr, ptr %0, align 8
  %53 = ptrtoint ptr %51 to i64
  %54 = ptrtoint ptr %52 to i64
  %55 = sub i64 %53, %54
  %56 = ashr exact i64 %55, 5
  %57 = add i64 %56, %1
  br label %58

58:                                               ; preds = %49, %47, %23
  %.013 = phi i64 [ %spec.select, %23 ], [ %57, %49 ], [ %1, %47 ]
  ret i64 %.013

59:                                               ; preds = %44, %20, %46, %22
  %.pn27.pn = phi { ptr, i32 } [ %.pn2732, %22 ], [ %21, %20 ], [ %.pn38, %46 ], [ %45, %44 ]
  resume { ptr, i32 } %.pn27.pn

60:                                               ; preds = %42, %18
  unreachable
}